; Function Attrs: nounwind uwtable
define noalias noundef ptr @Gia_Gen2CreateMuxes(ptr noundef %0, i32 noundef %1, i32 noundef %2, ptr noundef %3, ptr noundef readonly captures(none) %4) local_unnamed_addr #0 {
  %6 = tail call noalias dereferenceable_or_null(16) ptr @malloc(i64 noundef 16) #28
  %7 = add i32 %2, -1
  %or.cond.i = icmp ult i32 %7, 15
  %spec.store.select.i = select i1 %or.cond.i, i32 16, i32 %2
  %8 = getelementptr inbounds nuw i8, ptr %6, i64 4
  store i32 0, ptr %8, align 4, !tbaa !11
  store i32 %spec.store.select.i, ptr %6, align 8, !tbaa !3
  %.not.i = icmp eq i32 %spec.store.select.i, 0
  br i1 %.not.i, label %Vec_IntAlloc.exit, label %9

9:                                                ; preds = %5
  %10 = sext i32 %spec.store.select.i to i64
  %11 = shl nsw i64 %10, 2
  %12 = tail call noalias ptr @malloc(i64 noundef %11) #28
  br label %Vec_IntAlloc.exit

Vec_IntAlloc.exit:                                ; preds = %5, %9
  %13 = phi ptr [ %12, %9 ], [ null, %5 ]
  %14 = getelementptr inbounds nuw i8, ptr %6, i64 8
  store ptr %13, ptr %14, align 8, !tbaa !10
  %15 = icmp sgt i32 %2, 0
  br i1 %15, label %.lr.ph, label %._crit_edge

.lr.ph:                                           ; preds = %Vec_IntAlloc.exit
  %16 = getelementptr i8, ptr %4, i64 8
  br label %17

17:                                               ; preds = %.lr.ph, %Vec_IntPush.exit
  %18 = phi ptr [ %13, %.lr.ph ], [ %.pre.i14, %Vec_IntPush.exit ]
  %.012 = phi i32 [ 0, %.lr.ph ], [ %42, %Vec_IntPush.exit ]
  %.val = load ptr, ptr %16, align 8, !tbaa !10
  %19 = shl i32 %.012, %1
  %20 = tail call i32 @Gia_Gen2CreateMux_rec(ptr noundef %0, ptr noundef %.val, i32 noundef %1, ptr noundef %3, i32 noundef %19)
  %21 = load i32, ptr %8, align 4, !tbaa !11
  %22 = load i32, ptr %6, align 8, !tbaa !3
  %23 = icmp eq i32 %21, %22
  br i1 %23, label %24, label %Vec_IntPush.exit

24:                                               ; preds = %17
  %25 = icmp slt i32 %21, 16
  br i1 %25, label %26, label %31

26:                                               ; preds = %24
  %.not9.i.i = icmp eq ptr %18, null
  br i1 %.not9.i.i, label %29, label %27

27:                                               ; preds = %26
  %28 = tail call dereferenceable_or_null(64) ptr @realloc(ptr noundef nonnull %18, i64 noundef 64) #30
  br label %Vec_IntPush.exit.sink.split

29:                                               ; preds = %26
  %30 = tail call noalias dereferenceable_or_null(64) ptr @malloc(i64 noundef 64) #28
  br label %Vec_IntPush.exit.sink.split

31:                                               ; preds = %24
  %32 = shl nuw nsw i32 %21, 1
  %.not9.i9.i = icmp eq ptr %18, null
  %33 = zext nneg i32 %32 to i64
  %34 = shl nuw nsw i64 %33, 2
  br i1 %.not9.i9.i, label %37, label %35

35:                                               ; preds = %31
  %36 = tail call ptr @realloc(ptr noundef nonnull %18, i64 noundef %34) #30
  br label %Vec_IntPush.exit.sink.split

37:                                               ; preds = %31
  %38 = tail call noalias ptr @malloc(i64 noundef %34) #28
  br label %Vec_IntPush.exit.sink.split

Vec_IntPush.exit.sink.split:                      ; preds = %35, %37, %27, %29
  %.sink15 = phi ptr [ %28, %27 ], [ %30, %29 ], [ %36, %35 ], [ %38, %37 ]
  %.sink = phi i32 [ 16, %27 ], [ 16, %29 ], [ %32, %35 ], [ %32, %37 ]
  store ptr %.sink15, ptr %14, align 8, !tbaa !10
  store i32 %.sink, ptr %6, align 8, !tbaa !3
  br label %Vec_IntPush.exit

Vec_IntPush.exit:                                 ; preds = %Vec_IntPush.exit.sink.split, %17
  %.pre.i14 = phi ptr [ %18, %17 ], [ %.sink15, %Vec_IntPush.exit.sink.split ]
  %39 = add nsw i32 %21, 1
  store i32 %39, ptr %8, align 4, !tbaa !11
  %40 = sext i32 %21 to i64
  %41 = getelementptr inbounds i32, ptr %.pre.i14, i64 %40
  store i32 %20, ptr %41, align 4, !tbaa !12
  %42 = add nuw nsw i32 %.012, 1
  %exitcond.not = icmp eq i32 %42, %2
  br i1 %exitcond.not, label %._crit_edge, label %17, !llvm.loop !51

._crit_edge:                                      ; preds = %Vec_IntPush.exit, %Vec_IntAlloc.exit
  ret ptr %6
}